; Function Attrs: mustprogress nounwind uwtable
define hidden noundef zeroext i1 @_ZNK4llvh6detail13DoubleAPFloat14bitwiseIsEqualERKS1_(ptr noundef nonnull readonly align 8 captures(none) dereferenceable(16) %this, ptr noundef nonnull readonly align 8 captures(none) dereferenceable(16) %RHS) local_unnamed_addr #2 align 2 {
entry:
  %Floats = getelementptr inbounds nuw i8, ptr %this, i64 8
  %0 = load ptr, ptr %Floats, align 8
  %Floats2 = getelementptr inbounds nuw i8, ptr %RHS, i64 8
  %1 = load ptr, ptr %Floats2, align 8
  %call4 = tail call noundef zeroext i1 @_ZNK4llvh7APFloat14bitwiseIsEqualERKS0_(ptr noundef nonnull align 8 dereferenceable(32) %0, ptr noundef nonnull align 8 dereferenceable(32) %1)
  br i1 %call4, label %land.rhs, label %land.end

land.rhs:                                         ; preds = %entry
  %2 = load ptr, ptr %Floats, align 8
  %arrayidx.i = getelementptr inbounds nuw i8, ptr %2, i64 32
  %3 = load ptr, ptr %Floats2, align 8
  %arrayidx.i2 = getelementptr inbounds nuw i8, ptr %3, i64 32
  %call9 = tail call noundef zeroext i1 @_ZNK4llvh7APFloat14bitwiseIsEqualERKS0_(ptr noundef nonnull align 8 dereferenceable(32) %arrayidx.i, ptr noundef nonnull align 8 dereferenceable(32) %arrayidx.i2)
  br label %land.end

land.end:                                         ; preds = %land.rhs, %entry
  %4 = phi i1 [ false, %entry ], [ %call9, %land.rhs ]
  ret i1 %4
}